target datalayout = "e-m:e-p270:32:32-p271:32:32-p272:64:64-i64:64-i128:128-f80:128-n8:16:32:64-S128"
target triple = "x86_64-pc-linux-gnu"

; Function Attrs: nounwind uwtable
define internal double @trc_iec61966_2_1_inv(double noundef %0) #0 {
  %2 = alloca double, align 8
  %3 = alloca double, align 8
  %4 = alloca double, align 8
  store double %0, ptr %2, align 8, !tbaa !27
  call void @llvm.lifetime.start.p0(i64 8, ptr %3) #7
  store double 1.055000e+00, ptr %3, align 8, !tbaa !27
  call void @llvm.lifetime.start.p0(i64 8, ptr %4) #7
  store double 0x3FA4B5DAA07D970D, ptr %4, align 8, !tbaa !27
  %5 = load double, ptr %2, align 8, !tbaa !27
  %6 = fcmp nsz ogt double 0.000000e+00, %5
  br i1 %6, label %7, label %8

7:                                                ; preds = %1
  br label %21

8:                                                ; preds = %1
  %9 = load double, ptr %2, align 8, !tbaa !27
  %10 = fcmp nsz ogt double 0x3FA4B5DAA07D970D, %9
  br i1 %10, label %11, label %14

11:                                               ; preds = %8
  %12 = load double, ptr %2, align 8, !tbaa !27
  %13 = fdiv nsz double %12, 1.292000e+01
  br label %19

14:                                               ; preds = %8
  %15 = load double, ptr %2, align 8, !tbaa !27
  %16 = fadd nsz double %15, 0x3FAC28F5C28F5C20
  %17 = fdiv nsz double %16, 1.055000e+00
  %18 = call nsz double @llvm.pow.f64(double %17, double 2.400000e+00)
  br label %19

19:                                               ; preds = %14, %11
  %20 = phi nsz double [ %13, %11 ], [ %18, %14 ]
  br label %21

21:                                               ; preds = %19, %7
  %22 = phi nsz double [ 0.000000e+00, %7 ], [ %20, %19 ]
  call void @llvm.lifetime.end.p0(i64 8, ptr %4) #7
  call void @llvm.lifetime.end.p0(i64 8, ptr %3) #7
  ret double %22
}

; Function Attrs: nounwind uwtable
define internal void @eotf_linear(double noundef %0, double noundef %1, ptr noundef %2) #0 {
  %4 = alloca double, align 8
  %5 = alloca double, align 8
  %6 = alloca ptr, align 8
  %7 = alloca i32, align 4
  store double %0, ptr %4, align 8, !tbaa !27
  store double %1, ptr %5, align 8, !tbaa !27
  store ptr %2, ptr %6, align 8, !tbaa !30
  call void @llvm.lifetime.start.p0(i64 4, ptr %7) #7
  store i32 0, ptr %7, align 4, !tbaa !4
  br label %8

8:                                                ; preds = %27, %3
  %9 = load i32, ptr %7, align 4, !tbaa !4
  %10 = icmp slt i32 %9, 3
  br i1 %10, label %12, label %11

11:                                               ; preds = %8
  call void @llvm.lifetime.end.p0(i64 4, ptr %7) #7
  br label %30

12:                                               ; preds = %8
  %13 = load double, ptr %4, align 8, !tbaa !27
  %14 = load double, ptr %5, align 8, !tbaa !27
  %15 = fsub nsz double %13, %14
  %16 = load ptr, ptr %6, align 8, !tbaa !30
  %17 = load i32, ptr %7, align 4, !tbaa !4
  %18 = sext i32 %17 to i64
  %19 = getelementptr inbounds double, ptr %16, i64 %18
  %20 = load double, ptr %19, align 8, !tbaa !27
  %21 = load double, ptr %5, align 8, !tbaa !27
  %22 = call nsz double @llvm.fmuladd.f64(double %15, double %20, double %21)
  %23 = load ptr, ptr %6, align 8, !tbaa !30
  %24 = load i32, ptr %7, align 4, !tbaa !4
  %25 = sext i32 %24 to i64
  %26 = getelementptr inbounds double, ptr %23, i64 %25
  store double %22, ptr %26, align 8, !tbaa !27
  br label %27

27:                                               ; preds = %12
  %28 = load i32, ptr %7, align 4, !tbaa !4
  %29 = add nsw i32 %28, 1
  store i32 %29, ptr %7, align 4, !tbaa !4
  br label %8, !llvm.loop !33

30:                                               ; preds = %11
  ret void
}

; Function Attrs: nounwind uwtable
define internal void @oetf_iec61966_2_1_inv(ptr noundef %0) #0 {
  %2 = alloca ptr, align 8
  %3 = alloca i32, align 4
  store ptr %0, ptr %2, align 8, !tbaa !30
  call void @llvm.lifetime.start.p0(i64 4, ptr %3) #7
  store i32 0, ptr %3, align 4, !tbaa !4
  br label %4

4:                                                ; preds = %19, %1
  %5 = load i32, ptr %3, align 4, !tbaa !4
  %6 = icmp slt i32 %5, 3
  br i1 %6, label %8, label %7

7:                                                ; preds = %4
  call void @llvm.lifetime.end.p0(i64 4, ptr %3) #7
  br label %22

8:                                                ; preds = %4
  %9 = load ptr, ptr %2, align 8, !tbaa !30
  %10 = load i32, ptr %3, align 4, !tbaa !4
  %11 = sext i32 %10 to i64
  %12 = getelementptr inbounds double, ptr %9, i64 %11
  %13 = load double, ptr %12, align 8, !tbaa !27
  %14 = call nsz double @trc_iec61966_2_1_inv(double noundef %13)
  %15 = load ptr, ptr %2, align 8, !tbaa !30
  %16 = load i32, ptr %3, align 4, !tbaa !4
  %17 = sext i32 %16 to i64
  %18 = getelementptr inbounds double, ptr %15, i64 %17
  store double %14, ptr %18, align 8, !tbaa !27
  br label %19

19:                                               ; preds = %8
  %20 = load i32, ptr %3, align 4, !tbaa !4
  %21 = add nsw i32 %20, 1
  store i32 %21, ptr %3, align 4, !tbaa !4
  br label %4, !llvm.loop !40

22:                                               ; preds = %7
  ret void
}

; Function Attrs: nounwind uwtable
define internal void @eotf_iec61966_2_1(double noundef %0, double noundef %1, ptr noundef %2) #0 {
  %4 = alloca double, align 8
  %5 = alloca double, align 8
  %6 = alloca ptr, align 8
  store double %0, ptr %4, align 8, !tbaa !27
  store double %1, ptr %5, align 8, !tbaa !27
  store ptr %2, ptr %6, align 8, !tbaa !30
  %7 = load ptr, ptr %6, align 8, !tbaa !30
  call void @oetf_iec61966_2_1_inv(ptr noundef %7)
  %8 = load double, ptr %4, align 8, !tbaa !27
  %9 = load double, ptr %5, align 8, !tbaa !27
  %10 = load ptr, ptr %6, align 8, !tbaa !30
  call void @eotf_linear(double noundef %8, double noundef %9, ptr noundef %10)
  ret void
}