; Function Attrs: nofree norecurse nosync nounwind memory(argmem: readwrite) uwtable
define internal void @eotf_iec61966_2_1(double noundef %0, double noundef %1, ptr noundef captures(none) %2) #5 {
  br label %4

4:                                                ; preds = %trc_iec61966_2_1_inv.exit.i, %3
  %indvars.iv.i = phi i64 [ 0, %3 ], [ %indvars.iv.next.i, %trc_iec61966_2_1_inv.exit.i ]
  %5 = getelementptr inbounds nuw double, ptr %2, i64 %indvars.iv.i
  %6 = load double, ptr %5, align 8, !tbaa !16
  %7 = fcmp nsz olt double %6, 0.000000e+00
  br i1 %7, label %trc_iec61966_2_1_inv.exit.i, label %8

8:                                                ; preds = %4
  %9 = fcmp nsz olt double %6, 0x3FA4B5DAA07D970D
  br i1 %9, label %10, label %12

10:                                               ; preds = %8
  %11 = fdiv nsz double %6, 1.292000e+01
  br label %trc_iec61966_2_1_inv.exit.i

12:                                               ; preds = %8
  %13 = fadd nsz double %6, 0x3FAC28F5C28F5C20
  %14 = fdiv nsz double %13, 1.055000e+00
  %15 = tail call nsz double @llvm.pow.f64(double %14, double 2.400000e+00)
  br label %trc_iec61966_2_1_inv.exit.i

trc_iec61966_2_1_inv.exit.i:                      ; preds = %12, %10, %4
  %16 = phi nsz double [ 0.000000e+00, %4 ], [ %11, %10 ], [ %15, %12 ]
  store double %16, ptr %5, align 8, !tbaa !16
  %indvars.iv.next.i = add nuw nsw i64 %indvars.iv.i, 1
  %exitcond.not.i = icmp eq i64 %indvars.iv.next.i, 3
  br i1 %exitcond.not.i, label %oetf_iec61966_2_1_inv.exit, label %4, !llvm.loop !24

oetf_iec61966_2_1_inv.exit:                       ; preds = %trc_iec61966_2_1_inv.exit.i
  %17 = fsub nsz double %0, %1
  br label %18

18:                                               ; preds = %18, %oetf_iec61966_2_1_inv.exit
  %indvars.iv.i4 = phi i64 [ 0, %oetf_iec61966_2_1_inv.exit ], [ %indvars.iv.next.i5, %18 ]
  %19 = getelementptr inbounds nuw double, ptr %2, i64 %indvars.iv.i4
  %20 = load double, ptr %19, align 8, !tbaa !16
  %21 = tail call nsz double @llvm.fmuladd.f64(double %17, double %20, double %1)
  store double %21, ptr %19, align 8, !tbaa !16
  %indvars.iv.next.i5 = add nuw nsw i64 %indvars.iv.i4, 1
  %exitcond.not.i6 = icmp eq i64 %indvars.iv.next.i5, 3
  br i1 %exitcond.not.i6, label %eotf_linear.exit, label %18, !llvm.loop !22

eotf_linear.exit:                                 ; preds = %18
  ret void
}